---
triple:          'arm64-apple-darwin'
binary-path:     '/Users/huangwenyuan/Library/CloudStorage/OneDrive-UW-Madison/Badger/ICPC/OJ/Codeforces/1981/C'
relocations:
  - { offsetInCU: 0x3F, offset: 0x3F, size: 0x8, addend: 0x0, symName: _n, symObjAddr: 0x2AEC4, symBinAddr: 0x10000C000, symSize: 0x0 }
  - { offsetInCU: 0x4789, offset: 0x4789, size: 0x8, addend: 0x0, symName: __ZNSt3__124__put_character_sequenceB8ue170006IcNS_11char_traitsIcEEEERNS_13basic_ostreamIT_T0_EES7_PKS4_m, symObjAddr: 0x1D98, symBinAddr: 0x1000055A8, symSize: 0x1F4 }
  - { offsetInCU: 0x6518, offset: 0x6518, size: 0x8, addend: 0x0, symName: __ZNSt3__1lsB8ue170006INS_11char_traitsIcEEEERNS_13basic_ostreamIcT_EES6_PKc, symObjAddr: 0x9EC, symBinAddr: 0x1000041FC, symSize: 0x48 }
  - { offsetInCU: 0x655E, offset: 0x655E, size: 0x8, addend: 0x0, symName: __ZNSt3__13minB8ue170006IxEERKT_S3_S3_, symObjAddr: 0xA34, symBinAddr: 0x100004244, symSize: 0x2C }
  - { offsetInCU: 0x65A1, offset: 0x65A1, size: 0x8, addend: 0x0, symName: __ZNSt3__13maxB8ue170006IxEERKT_S3_S3_, symObjAddr: 0xA60, symBinAddr: 0x100004270, symSize: 0x2C }
  - { offsetInCU: 0x65E4, offset: 0x65E4, size: 0x8, addend: 0x0, symName: __ZNSt3__17reverseB8ue170006INS_11__wrap_iterIPxEEEEvT_S4_, symObjAddr: 0xB90, symBinAddr: 0x1000043A0, symSize: 0x3C }
  - { offsetInCU: 0x6623, offset: 0x6623, size: 0x8, addend: 0x0, symName: __ZNSt3__122__make_exception_guardB8ue170006INS_6vectorIxNS_9allocatorIxEEE16__destroy_vectorEEENS_28__exception_guard_exceptionsIT_EES7_, symObjAddr: 0xE84, symBinAddr: 0x100004694, symSize: 0x40 }
  - { offsetInCU: 0x6658, offset: 0x6658, size: 0x8, addend: 0x0, symName: __ZNSt3__119__allocate_at_leastB8ue170006INS_9allocatorIxEEEENS_19__allocation_resultINS_16allocator_traitsIT_E7pointerEEERS5_m, symObjAddr: 0x128C, symBinAddr: 0x100004A9C, symSize: 0x40 }
  - { offsetInCU: 0x669B, offset: 0x669B, size: 0x8, addend: 0x0, symName: __ZNSt3__13minB8ue170006ImEERKT_S3_S3_, symObjAddr: 0x13C8, symBinAddr: 0x100004BD8, symSize: 0x2C }
  - { offsetInCU: 0x68DF, offset: 0x68DF, size: 0x8, addend: 0x0, symName: __ZNSt3__13minB8ue170006ImNS_6__lessIvvEEEERKT_S5_S5_T0_, symObjAddr: 0x1454, symBinAddr: 0x100004C64, symSize: 0x54 }
  - { offsetInCU: 0x69AF, offset: 0x69AF, size: 0x8, addend: 0x0, symName: __ZNSt3__120__throw_length_errorB8ue170006EPKc, symObjAddr: 0x1530, symBinAddr: 0x100004D40, symSize: 0x64 }
  - { offsetInCU: 0x69D9, offset: 0x69D9, size: 0x8, addend: 0x0, symName: __ZNSt3__130__libcpp_is_constant_evaluatedB8ue170006Ev, symObjAddr: 0x16CC, symBinAddr: 0x100004EDC, symSize: 0xC }
  - { offsetInCU: 0x69F6, offset: 0x69F6, size: 0x8, addend: 0x0, symName: __ZNSt3__117__libcpp_allocateB8ue170006Emm, symObjAddr: 0x16D8, symBinAddr: 0x100004EE8, symSize: 0x28 }
  - { offsetInCU: 0x6A33, offset: 0x6A33, size: 0x8, addend: 0x0, symName: __ZNSt3__121__libcpp_operator_newB8ue170006IJmEEEPvDpT_, symObjAddr: 0x1700, symBinAddr: 0x100004F10, symSize: 0x24 }
  - { offsetInCU: 0x6A6C, offset: 0x6A6C, size: 0x8, addend: 0x0, symName: __ZNSt3__112__to_addressB8ue170006IxEEPT_S2_, symObjAddr: 0x181C, symBinAddr: 0x10000502C, symSize: 0x14 }
  - { offsetInCU: 0x6AA1, offset: 0x6AA1, size: 0x8, addend: 0x0, symName: __ZNSt3__119__libcpp_deallocateB8ue170006EPvmm, symObjAddr: 0x1CE0, symBinAddr: 0x1000054F0, symSize: 0x30 }
  - { offsetInCU: 0x6AE9, offset: 0x6AE9, size: 0x8, addend: 0x0, symName: __ZNSt3__127__do_deallocate_handle_sizeB8ue170006IJEEEvPvmDpT_, symObjAddr: 0x1D10, symBinAddr: 0x100005520, symSize: 0x28 }
  - { offsetInCU: 0x6B27, offset: 0x6B27, size: 0x8, addend: 0x0, symName: __ZNSt3__124__libcpp_operator_deleteB8ue170006IJPvEEEvDpT_, symObjAddr: 0x1D38, symBinAddr: 0x100005548, symSize: 0x24 }
  - { offsetInCU: 0x6B5C, offset: 0x6B5C, size: 0x8, addend: 0x0, symName: __ZNSt3__116__pad_and_outputB8ue170006IcNS_11char_traitsIcEEEENS_19ostreambuf_iteratorIT_T0_EES6_PKS4_S8_S8_RNS_8ios_baseES4_, symObjAddr: 0x1FF0, symBinAddr: 0x100005800, symSize: 0x248 }
  - { offsetInCU: 0x6C2B, offset: 0x6C2B, size: 0x8, addend: 0x0, symName: __ZNSt3__112__to_addressB8ue170006IKcEEPT_S3_, symObjAddr: 0x2560, symBinAddr: 0x100005D70, symSize: 0x14 }
  - { offsetInCU: 0x6C93, offset: 0x6C93, size: 0x8, addend: 0x0, symName: __ZNSt3__19use_facetB8ue170006INS_5ctypeIcEEEERKT_RKNS_6localeE, symObjAddr: 0x2838, symBinAddr: 0x100006048, symSize: 0x2C }
  - { offsetInCU: 0x7160, offset: 0x7160, size: 0x8, addend: 0x0, symName: __ZNSt3__118__constexpr_strlenB8ue170006EPKc, symObjAddr: 0x28D0, symBinAddr: 0x1000060E0, symSize: 0x24 }
  - { offsetInCU: 0x718C, offset: 0x718C, size: 0x8, addend: 0x0, symName: __ZNSt3__13minB8ue170006IxNS_6__lessIvvEEEERKT_S5_S5_T0_, symObjAddr: 0x28F4, symBinAddr: 0x100006104, symSize: 0x54 }
  - { offsetInCU: 0x71E6, offset: 0x71E6, size: 0x8, addend: 0x0, symName: __ZNSt3__13maxB8ue170006IxNS_6__lessIvvEEEERKT_S5_S5_T0_, symObjAddr: 0x297C, symBinAddr: 0x10000618C, symSize: 0x54 }
  - { offsetInCU: 0x7240, offset: 0x7240, size: 0x8, addend: 0x0, symName: __ZNSt3__13maxB8ue170006ImEERKT_S3_S3_, symObjAddr: 0x2E1C, symBinAddr: 0x10000662C, symSize: 0x2C }
  - { offsetInCU: 0x7283, offset: 0x7283, size: 0x8, addend: 0x0, symName: __ZNSt3__13maxB8ue170006ImNS_6__lessIvvEEEERKT_S5_S5_T0_, symObjAddr: 0x2E48, symBinAddr: 0x100006658, symSize: 0x54 }
  - { offsetInCU: 0x72DD, offset: 0x72DD, size: 0x8, addend: 0x0, symName: __ZNSt3__142__uninitialized_allocator_move_if_noexceptB8ue170006INS_9allocatorIxEENS_16reverse_iteratorIPxEES5_xvEET1_RT_T0_S9_S6_, symObjAddr: 0x30C8, symBinAddr: 0x1000068D8, symSize: 0xE8 }
  - { offsetInCU: 0x735A, offset: 0x735A, size: 0x8, addend: 0x0, symName: __ZNSt3__14swapB8ue170006IPxEEvRT_S3_, symObjAddr: 0x31FC, symBinAddr: 0x100006A0C, symSize: 0x3C }
  - { offsetInCU: 0x73AB, offset: 0x73AB, size: 0x8, addend: 0x0, symName: __ZNSt3__1neB8ue170006IPxS1_EEbRKNS_16reverse_iteratorIT_EERKNS2_IT0_EE, symObjAddr: 0x3238, symBinAddr: 0x100006A48, symSize: 0x48 }
  - { offsetInCU: 0x741C, offset: 0x741C, size: 0x8, addend: 0x0, symName: __ZNSt3__114__construct_atB8ue170006IxJxEPxEEPT_S3_DpOT0_, symObjAddr: 0x3280, symBinAddr: 0x100006A90, symSize: 0x2C }
  - { offsetInCU: 0x748C, offset: 0x748C, size: 0x8, addend: 0x0, symName: __ZNSt3__112__to_addressB8ue170006INS_16reverse_iteratorIPxEEvEEu7__decayIDTclsr19__to_address_helperIT_EE6__callclsr3stdE7declvalIRKS4_EEEEES6_, symObjAddr: 0x32AC, symBinAddr: 0x100006ABC, symSize: 0x24 }
  - { offsetInCU: 0x74C2, offset: 0x74C2, size: 0x8, addend: 0x0, symName: __ZNSt3__14moveB8ue170006INS_16reverse_iteratorIPxEES3_EET0_T_S5_S4_, symObjAddr: 0x3318, symBinAddr: 0x100006B28, symSize: 0x78 }
  - { offsetInCU: 0x7545, offset: 0x7545, size: 0x8, addend: 0x0, symName: __ZNSt3__16__moveB8ue170006INS_17_ClassicAlgPolicyENS_16reverse_iteratorIPxEES4_S4_EENS_4pairIT0_T2_EES6_T1_S7_, symObjAddr: 0x3400, symBinAddr: 0x100006C10, symSize: 0x64 }
  - { offsetInCU: 0x75B1, offset: 0x75B1, size: 0x8, addend: 0x0, symName: __ZNSt3__123__dispatch_copy_or_moveB8ue170006INS_17_ClassicAlgPolicyENS_11__move_loopIS1_EENS_14__move_trivialENS_16reverse_iteratorIPxEES7_S7_EENS_4pairIT2_T4_EES9_T3_SA_, symObjAddr: 0x3464, symBinAddr: 0x100006C74, symSize: 0x64 }
  - { offsetInCU: 0x762F, offset: 0x762F, size: 0x8, addend: 0x0, symName: __ZNSt3__121__unwrap_and_dispatchB8ue170006INS_10__overloadINS_11__move_loopINS_17_ClassicAlgPolicyEEENS_14__move_trivialEEENS_16reverse_iteratorIPxEES9_S9_Li0EEENS_4pairIT0_T2_EESB_T1_SC_, symObjAddr: 0x34C8, symBinAddr: 0x100006CD8, symSize: 0x12C }
  - { offsetInCU: 0x76BF, offset: 0x76BF, size: 0x8, addend: 0x0, symName: __ZNSt3__114__unwrap_rangeB8ue170006INS_16reverse_iteratorIPxEES3_EENS_4pairIT0_S5_EET_S7_, symObjAddr: 0x35F4, symBinAddr: 0x100006E04, symSize: 0x84 }
  - { offsetInCU: 0x7813, offset: 0x7813, size: 0x8, addend: 0x0, symName: __ZNSt3__113__unwrap_iterB8ue170006INS_16reverse_iteratorIPxEENS_18__unwrap_iter_implIS3_Lb0EEELi0EEEDTclsrT0_8__unwrapclsr3stdE7declvalIT_EEEES7_, symObjAddr: 0x3718, symBinAddr: 0x100006F28, symSize: 0x44 }
  - { offsetInCU: 0x7857, offset: 0x7857, size: 0x8, addend: 0x0, symName: __ZNSt3__19make_pairB8ue170006INS_16reverse_iteratorIPxEES3_EENS_4pairINS_18__unwrap_ref_decayIT_E4typeENS5_IT0_E4typeEEEOS6_OS9_, symObjAddr: 0x375C, symBinAddr: 0x100006F6C, symSize: 0x38 }
  - { offsetInCU: 0x78A6, offset: 0x78A6, size: 0x8, addend: 0x0, symName: __ZNSt3__114__rewrap_rangeB8ue170006INS_16reverse_iteratorIPxEES3_EET_S4_T0_, symObjAddr: 0x3794, symBinAddr: 0x100006FA4, symSize: 0x5C }
  - { offsetInCU: 0x78F2, offset: 0x78F2, size: 0x8, addend: 0x0, symName: __ZNSt3__113__rewrap_iterB8ue170006INS_16reverse_iteratorIPxEES3_NS_18__unwrap_iter_implIS3_Lb0EEEEET_S6_T0_, symObjAddr: 0x37F0, symBinAddr: 0x100007000, symSize: 0x88 }
  - { offsetInCU: 0x7A21, offset: 0x7A21, size: 0x8, addend: 0x0, symName: __ZNSt3__19__reverseB8ue170006INS_17_ClassicAlgPolicyENS_11__wrap_iterIPxEES4_EEvT0_T1_, symObjAddr: 0x3DD8, symBinAddr: 0x1000075E8, symSize: 0x3C }
  - { offsetInCU: 0x7A72, offset: 0x7A72, size: 0x8, addend: 0x0, symName: __ZNSt3__114__reverse_implB8ue170006INS_17_ClassicAlgPolicyENS_11__wrap_iterIPxEEEEvT0_S5_NS_26random_access_iterator_tagE, symObjAddr: 0x3E14, symBinAddr: 0x100007624, symSize: 0x7C }
  - { offsetInCU: 0x7AC4, offset: 0x7AC4, size: 0x8, addend: 0x0, symName: __ZNSt3__1neB8ue170006IPxEEbRKNS_11__wrap_iterIT_EES6_, symObjAddr: 0x3E90, symBinAddr: 0x1000076A0, symSize: 0x34 }
  - { offsetInCU: 0x7B07, offset: 0x7B07, size: 0x8, addend: 0x0, symName: __ZNSt3__1ltB8ue170006IPxEEbRKNS_11__wrap_iterIT_EES6_, symObjAddr: 0x3EC4, symBinAddr: 0x1000076D4, symSize: 0x48 }
  - { offsetInCU: 0x7B4A, offset: 0x7B4A, size: 0x8, addend: 0x0, symName: __ZNSt3__1eqB8ue170006IPxEEbRKNS_11__wrap_iterIT_EES6_, symObjAddr: 0x3F90, symBinAddr: 0x1000077A0, symSize: 0x48 }
  - { offsetInCU: 0x7B8D, offset: 0x7B8D, size: 0x8, addend: 0x0, symName: __ZNSt3__19iter_swapB8ue170006INS_11__wrap_iterIPxEES3_EEvT_T0_, symObjAddr: 0x3FF0, symBinAddr: 0x100007800, symSize: 0x50 }
  - { offsetInCU: 0x7BD5, offset: 0x7BD5, size: 0x8, addend: 0x0, symName: __ZNSt3__14swapB8ue170006IxEEvRT_S2_, symObjAddr: 0x4040, symBinAddr: 0x100007850, symSize: 0x3C }
  - { offsetInCU: 0x7E0B, offset: 0x7E0B, size: 0x8, addend: 0x0, symName: __ZSt28__throw_bad_array_new_lengthB8ue170006v, symObjAddr: 0x1698, symBinAddr: 0x100004EA8, symSize: 0x34 }
  - { offsetInCU: 0x83C1, offset: 0x83C1, size: 0x8, addend: 0x0, symName: __ZNSt3__16vectorIxNS_9allocatorIxEEE26__swap_out_circular_bufferERNS_14__split_bufferIxRS2_EE, symObjAddr: 0x2CE0, symBinAddr: 0x1000064F0, symSize: 0x110 }
  - { offsetInCU: 0xA7BC, offset: 0xA7BC, size: 0x8, addend: 0x0, symName: __Z3mxbx, symObjAddr: 0x0, symBinAddr: 0x100003810, symSize: 0x78 }
  - { offsetInCU: 0xA805, offset: 0xA805, size: 0x8, addend: 0x0, symName: __Z5solvev, symObjAddr: 0x78, symBinAddr: 0x100003888, symSize: 0x91C }
  - { offsetInCU: 0xA9CD, offset: 0xA9CD, size: 0x8, addend: 0x0, symName: __ZNSt3__16vectorIxNS_9allocatorIxEEEC1Em, symObjAddr: 0x994, symBinAddr: 0x1000041A4, symSize: 0x34 }
  - { offsetInCU: 0xAA07, offset: 0xAA07, size: 0x8, addend: 0x0, symName: __ZNSt3__16vectorIxNS_9allocatorIxEEEixB8ue170006Em, symObjAddr: 0x9C8, symBinAddr: 0x1000041D8, symSize: 0x24 }
  - { offsetInCU: 0xAA3D, offset: 0xAA3D, size: 0x8, addend: 0x0, symName: __ZNSt3__16vectorIxNS_9allocatorIxEEEC1B8ue170006Ev, symObjAddr: 0xA8C, symBinAddr: 0x10000429C, symSize: 0x2C }
  - { offsetInCU: 0xAA66, offset: 0xAA66, size: 0x8, addend: 0x0, symName: __ZNSt3__16vectorIxNS_9allocatorIxEEE9push_backB8ue170006EOx, symObjAddr: 0xAB8, symBinAddr: 0x1000042C8, symSize: 0x6C }
  - { offsetInCU: 0xAA9B, offset: 0xAA9B, size: 0x8, addend: 0x0, symName: __ZNSt3__16vectorIxNS_9allocatorIxEEE9push_backB8ue170006ERKx, symObjAddr: 0xB24, symBinAddr: 0x100004334, symSize: 0x6C }
  - { offsetInCU: 0xAAD0, offset: 0xAAD0, size: 0x8, addend: 0x0, symName: __ZNSt3__16vectorIxNS_9allocatorIxEEE5beginB8ue170006Ev, symObjAddr: 0xBCC, symBinAddr: 0x1000043DC, symSize: 0x30 }
  - { offsetInCU: 0xAAF6, offset: 0xAAF6, size: 0x8, addend: 0x0, symName: __ZNSt3__16vectorIxNS_9allocatorIxEEE3endB8ue170006Ev, symObjAddr: 0xBFC, symBinAddr: 0x10000440C, symSize: 0x30 }
  - { offsetInCU: 0xAB1C, offset: 0xAB1C, size: 0x8, addend: 0x0, symName: __ZNKSt3__16vectorIxNS_9allocatorIxEEE4sizeB8ue170006Ev, symObjAddr: 0xC2C, symBinAddr: 0x10000443C, symSize: 0x28 }
  - { offsetInCU: 0xAB41, offset: 0xAB41, size: 0x8, addend: 0x0, symName: __ZNSt3__16vectorIxNS_9allocatorIxEEED1B8ue170006Ev, symObjAddr: 0xC54, symBinAddr: 0x100004464, symSize: 0x2C }
  - { offsetInCU: 0xAB6A, offset: 0xAB6A, size: 0x8, addend: 0x0, symName: _main, symObjAddr: 0xC8C, symBinAddr: 0x10000449C, symSize: 0xB4 }
  - { offsetInCU: 0xAB93, offset: 0xAB93, size: 0x8, addend: 0x0, symName: __ZNSt3__19basic_iosIcNS_11char_traitsIcEEE3tieB8ue170006EPNS_13basic_ostreamIcS2_EE, symObjAddr: 0xD40, symBinAddr: 0x100004550, symSize: 0x2C }
  - { offsetInCU: 0xABD8, offset: 0xABD8, size: 0x8, addend: 0x0, symName: __ZNSt3__16vectorIxNS_9allocatorIxEEEC2Em, symObjAddr: 0xD6C, symBinAddr: 0x10000457C, symSize: 0xDC }
  - { offsetInCU: 0xAC31, offset: 0xAC31, size: 0x8, addend: 0x0, symName: __ZNSt3__117__compressed_pairIPxNS_9allocatorIxEEEC1B8ue170006IDnNS_18__default_init_tagEEEOT_OT0_, symObjAddr: 0xE48, symBinAddr: 0x100004658, symSize: 0x3C }
  - { offsetInCU: 0xAC88, offset: 0xAC88, size: 0x8, addend: 0x0, symName: __ZNSt3__16vectorIxNS_9allocatorIxEEE16__destroy_vectorC1B8ue170006ERS3_, symObjAddr: 0xEC4, symBinAddr: 0x1000046D4, symSize: 0x34 }
  - { offsetInCU: 0xACC0, offset: 0xACC0, size: 0x8, addend: 0x0, symName: __ZNSt3__16vectorIxNS_9allocatorIxEEE11__vallocateB8ue170006Em, symObjAddr: 0xEF8, symBinAddr: 0x100004708, symSize: 0xAC }
  - { offsetInCU: 0xAD03, offset: 0xAD03, size: 0x8, addend: 0x0, symName: __ZNSt3__16vectorIxNS_9allocatorIxEEE18__construct_at_endEm, symObjAddr: 0xFA4, symBinAddr: 0x1000047B4, symSize: 0xD0 }
  - { offsetInCU: 0xAD74, offset: 0xAD74, size: 0x8, addend: 0x0, symName: __ZNSt3__128__exception_guard_exceptionsINS_6vectorIxNS_9allocatorIxEEE16__destroy_vectorEE10__completeB8ue170006Ev, symObjAddr: 0x1074, symBinAddr: 0x100004884, symSize: 0x1C }
  - { offsetInCU: 0xAD99, offset: 0xAD99, size: 0x8, addend: 0x0, symName: __ZNSt3__128__exception_guard_exceptionsINS_6vectorIxNS_9allocatorIxEEE16__destroy_vectorEED1B8ue170006Ev, symObjAddr: 0x1090, symBinAddr: 0x1000048A0, symSize: 0x2C }
  - { offsetInCU: 0xADC2, offset: 0xADC2, size: 0x8, addend: 0x0, symName: __ZNSt3__117__compressed_pairIPxNS_9allocatorIxEEEC2B8ue170006IDnNS_18__default_init_tagEEEOT_OT0_, symObjAddr: 0x10BC, symBinAddr: 0x1000048CC, symSize: 0x40 }
  - { offsetInCU: 0xAE19, offset: 0xAE19, size: 0x8, addend: 0x0, symName: __ZNSt3__122__compressed_pair_elemIPxLi0ELb0EEC2B8ue170006IDnvEEOT_, symObjAddr: 0x10FC, symBinAddr: 0x10000490C, symSize: 0x1C }
  - { offsetInCU: 0xAE5A, offset: 0xAE5A, size: 0x8, addend: 0x0, symName: __ZNSt3__122__compressed_pair_elemINS_9allocatorIxEELi1ELb1EEC2B8ue170006ENS_18__default_init_tagE, symObjAddr: 0x1118, symBinAddr: 0x100004928, symSize: 0x2C }
  - { offsetInCU: 0xAE8D, offset: 0xAE8D, size: 0x8, addend: 0x0, symName: __ZNSt3__19allocatorIxEC2B8ue170006Ev, symObjAddr: 0x1144, symBinAddr: 0x100004954, symSize: 0x2C }
  - { offsetInCU: 0xAEB6, offset: 0xAEB6, size: 0x8, addend: 0x0, symName: __ZNSt3__116__non_trivial_ifILb1ENS_9allocatorIxEEEC2B8ue170006Ev, symObjAddr: 0x1170, symBinAddr: 0x100004980, symSize: 0x14 }
  - { offsetInCU: 0xAEDF, offset: 0xAEDF, size: 0x8, addend: 0x0, symName: __ZNSt3__128__exception_guard_exceptionsINS_6vectorIxNS_9allocatorIxEEE16__destroy_vectorEEC1B8ue170006ES5_, symObjAddr: 0x1184, symBinAddr: 0x100004994, symSize: 0x34 }
  - { offsetInCU: 0xAF16, offset: 0xAF16, size: 0x8, addend: 0x0, symName: __ZNSt3__128__exception_guard_exceptionsINS_6vectorIxNS_9allocatorIxEEE16__destroy_vectorEEC2B8ue170006ES5_, symObjAddr: 0x11B8, symBinAddr: 0x1000049C8, symSize: 0x24 }
  - { offsetInCU: 0xAF4D, offset: 0xAF4D, size: 0x8, addend: 0x0, symName: __ZNSt3__16vectorIxNS_9allocatorIxEEE16__destroy_vectorC2B8ue170006ERS3_, symObjAddr: 0x11DC, symBinAddr: 0x1000049EC, symSize: 0x20 }
  - { offsetInCU: 0xAF85, offset: 0xAF85, size: 0x8, addend: 0x0, symName: __ZNKSt3__16vectorIxNS_9allocatorIxEEE8max_sizeEv, symObjAddr: 0x11FC, symBinAddr: 0x100004A0C, symSize: 0x74 }
  - { offsetInCU: 0xAFAB, offset: 0xAFAB, size: 0x8, addend: 0x0, symName: __ZNKSt3__16vectorIxNS_9allocatorIxEEE20__throw_length_errorB8ue170006Ev, symObjAddr: 0x1270, symBinAddr: 0x100004A80, symSize: 0x1C }
  - { offsetInCU: 0xAFD0, offset: 0xAFD0, size: 0x8, addend: 0x0, symName: __ZNSt3__16vectorIxNS_9allocatorIxEEE7__allocB8ue170006Ev, symObjAddr: 0x12CC, symBinAddr: 0x100004ADC, symSize: 0x28 }
  - { offsetInCU: 0xAFF5, offset: 0xAFF5, size: 0x8, addend: 0x0, symName: __ZNSt3__16vectorIxNS_9allocatorIxEEE9__end_capB8ue170006Ev, symObjAddr: 0x12F4, symBinAddr: 0x100004B04, symSize: 0x28 }
  - { offsetInCU: 0xB01A, offset: 0xB01A, size: 0x8, addend: 0x0, symName: __ZNKSt3__16vectorIxNS_9allocatorIxEEE14__annotate_newB8ue170006Em, symObjAddr: 0x131C, symBinAddr: 0x100004B2C, symSize: 0xAC }
  - { offsetInCU: 0xB058, offset: 0xB058, size: 0x8, addend: 0x0, symName: __ZNSt3__116allocator_traitsINS_9allocatorIxEEE8max_sizeB8ue170006IS2_vEEmRKS2_, symObjAddr: 0x13F4, symBinAddr: 0x100004C04, symSize: 0x24 }
  - { offsetInCU: 0xB086, offset: 0xB086, size: 0x8, addend: 0x0, symName: __ZNKSt3__16vectorIxNS_9allocatorIxEEE7__allocB8ue170006Ev, symObjAddr: 0x1418, symBinAddr: 0x100004C28, symSize: 0x28 }
  - { offsetInCU: 0xB0AB, offset: 0xB0AB, size: 0x8, addend: 0x0, symName: __ZNSt3__114numeric_limitsIlE3maxB8ue170006Ev, symObjAddr: 0x1440, symBinAddr: 0x100004C50, symSize: 0x14 }
  - { offsetInCU: 0xB0D3, offset: 0xB0D3, size: 0x8, addend: 0x0, symName: __ZNKSt3__16__lessIvvEclB8ue170006ImmEEbRKT_RKT0_, symObjAddr: 0x14A8, symBinAddr: 0x100004CB8, symSize: 0x34 }
  - { offsetInCU: 0xB126, offset: 0xB126, size: 0x8, addend: 0x0, symName: __ZNKSt3__19allocatorIxE8max_sizeB8ue170006Ev, symObjAddr: 0x14DC, symBinAddr: 0x100004CEC, symSize: 0x14 }
  - { offsetInCU: 0xB14B, offset: 0xB14B, size: 0x8, addend: 0x0, symName: __ZNKSt3__117__compressed_pairIPxNS_9allocatorIxEEE6secondB8ue170006Ev, symObjAddr: 0x14F0, symBinAddr: 0x100004D00, symSize: 0x24 }
  - { offsetInCU: 0xB170, offset: 0xB170, size: 0x8, addend: 0x0, symName: __ZNKSt3__122__compressed_pair_elemINS_9allocatorIxEELi1ELb1EE5__getB8ue170006Ev, symObjAddr: 0x1514, symBinAddr: 0x100004D24, symSize: 0x14 }
  - { offsetInCU: 0xB195, offset: 0xB195, size: 0x8, addend: 0x0, symName: __ZNSt3__123__libcpp_numeric_limitsIlLb1EE3maxB8ue170006Ev, symObjAddr: 0x1528, symBinAddr: 0x100004D38, symSize: 0x8 }
  - { offsetInCU: 0xB1A9, offset: 0xB1A9, size: 0x8, addend: 0x0, symName: __ZNSt12length_errorC1B8ue170006EPKc, symObjAddr: 0x1594, symBinAddr: 0x100004DA4, symSize: 0x34 }
  - { offsetInCU: 0xB1E0, offset: 0xB1E0, size: 0x8, addend: 0x0, symName: __ZNSt12length_errorC2B8ue170006EPKc, symObjAddr: 0x15C8, symBinAddr: 0x100004DD8, symSize: 0x4C }
  - { offsetInCU: 0xB217, offset: 0xB217, size: 0x8, addend: 0x0, symName: __ZNSt3__19allocatorIxE8allocateB8ue170006Em, symObjAddr: 0x1614, symBinAddr: 0x100004E24, symSize: 0x84 }
  - { offsetInCU: 0xB24A, offset: 0xB24A, size: 0x8, addend: 0x0, symName: __ZNSt3__117__compressed_pairIPxNS_9allocatorIxEEE6secondB8ue170006Ev, symObjAddr: 0x1724, symBinAddr: 0x100004F34, symSize: 0x24 }
  - { offsetInCU: 0xB26F, offset: 0xB26F, size: 0x8, addend: 0x0, symName: __ZNSt3__122__compressed_pair_elemINS_9allocatorIxEELi1ELb1EE5__getB8ue170006Ev, symObjAddr: 0x1748, symBinAddr: 0x100004F58, symSize: 0x14 }
  - { offsetInCU: 0xB294, offset: 0xB294, size: 0x8, addend: 0x0, symName: __ZNSt3__117__compressed_pairIPxNS_9allocatorIxEEE5firstB8ue170006Ev, symObjAddr: 0x175C, symBinAddr: 0x100004F6C, symSize: 0x24 }
  - { offsetInCU: 0xB2B9, offset: 0xB2B9, size: 0x8, addend: 0x0, symName: __ZNSt3__122__compressed_pair_elemIPxLi0ELb0EE5__getB8ue170006Ev, symObjAddr: 0x1780, symBinAddr: 0x100004F90, symSize: 0x14 }
  - { offsetInCU: 0xB2DE, offset: 0xB2DE, size: 0x8, addend: 0x0, symName: __ZNKSt3__16vectorIxNS_9allocatorIxEEE31__annotate_contiguous_containerB8ue170006EPKvS5_S5_S5_, symObjAddr: 0x1794, symBinAddr: 0x100004FA4, symSize: 0x20 }
  - { offsetInCU: 0xB32F, offset: 0xB32F, size: 0x8, addend: 0x0, symName: __ZNKSt3__16vectorIxNS_9allocatorIxEEE4dataB8ue170006Ev, symObjAddr: 0x17B4, symBinAddr: 0x100004FC4, symSize: 0x28 }
  - { offsetInCU: 0xB354, offset: 0xB354, size: 0x8, addend: 0x0, symName: __ZNKSt3__16vectorIxNS_9allocatorIxEEE8capacityB8ue170006Ev, symObjAddr: 0x17DC, symBinAddr: 0x100004FEC, symSize: 0x40 }
  - { offsetInCU: 0xB379, offset: 0xB379, size: 0x8, addend: 0x0, symName: __ZNKSt3__16vectorIxNS_9allocatorIxEEE9__end_capB8ue170006Ev, symObjAddr: 0x1830, symBinAddr: 0x100005040, symSize: 0x28 }
  - { offsetInCU: 0xB39E, offset: 0xB39E, size: 0x8, addend: 0x0, symName: __ZNKSt3__117__compressed_pairIPxNS_9allocatorIxEEE5firstB8ue170006Ev, symObjAddr: 0x1858, symBinAddr: 0x100005068, symSize: 0x24 }
  - { offsetInCU: 0xB3C3, offset: 0xB3C3, size: 0x8, addend: 0x0, symName: __ZNKSt3__122__compressed_pair_elemIPxLi0ELb0EE5__getB8ue170006Ev, symObjAddr: 0x187C, symBinAddr: 0x10000508C, symSize: 0x14 }
  - { offsetInCU: 0xB401, offset: 0xB401, size: 0x8, addend: 0x0, symName: __ZNSt3__16vectorIxNS_9allocatorIxEEE21_ConstructTransactionC1B8ue170006ERS3_m, symObjAddr: 0x1890, symBinAddr: 0x1000050A0, symSize: 0x3C }
  - { offsetInCU: 0xB448, offset: 0xB448, size: 0x8, addend: 0x0, symName: __ZNSt3__116allocator_traitsINS_9allocatorIxEEE9constructB8ue170006IxJEvEEvRS2_PT_DpOT0_, symObjAddr: 0x18CC, symBinAddr: 0x1000050DC, symSize: 0x2C }
  - { offsetInCU: 0xB48A, offset: 0xB48A, size: 0x8, addend: 0x0, symName: __ZNSt3__16vectorIxNS_9allocatorIxEEE21_ConstructTransactionD1B8ue170006Ev, symObjAddr: 0x18F8, symBinAddr: 0x100005108, symSize: 0x2C }
  - { offsetInCU: 0xB4B3, offset: 0xB4B3, size: 0x8, addend: 0x0, symName: __ZNSt3__16vectorIxNS_9allocatorIxEEE21_ConstructTransactionC2B8ue170006ERS3_m, symObjAddr: 0x1924, symBinAddr: 0x100005134, symSize: 0x44 }
  - { offsetInCU: 0xB4FA, offset: 0xB4FA, size: 0x8, addend: 0x0, symName: __ZNSt3__19allocatorIxE9constructB8ue170006IxJEEEvPT_DpOT0_, symObjAddr: 0x1968, symBinAddr: 0x100005178, symSize: 0x1C }
  - { offsetInCU: 0xB53B, offset: 0xB53B, size: 0x8, addend: 0x0, symName: __ZNSt3__16vectorIxNS_9allocatorIxEEE21_ConstructTransactionD2B8ue170006Ev, symObjAddr: 0x1984, symBinAddr: 0x100005194, symSize: 0x20 }
  - { offsetInCU: 0xB564, offset: 0xB564, size: 0x8, addend: 0x0, symName: __ZNSt3__128__exception_guard_exceptionsINS_6vectorIxNS_9allocatorIxEEE16__destroy_vectorEED2B8ue170006Ev, symObjAddr: 0x19A4, symBinAddr: 0x1000051B4, symSize: 0x48 }
  - { offsetInCU: 0xB58D, offset: 0xB58D, size: 0x8, addend: 0x0, symName: __ZNSt3__16vectorIxNS_9allocatorIxEEE16__destroy_vectorclB8ue170006Ev, symObjAddr: 0x19EC, symBinAddr: 0x1000051FC, symSize: 0x90 }
  - { offsetInCU: 0xB5B2, offset: 0xB5B2, size: 0x8, addend: 0x0, symName: __ZNSt3__16vectorIxNS_9allocatorIxEEE7__clearB8ue170006Ev, symObjAddr: 0x1A7C, symBinAddr: 0x10000528C, symSize: 0x28 }
  - { offsetInCU: 0xB5D7, offset: 0xB5D7, size: 0x8, addend: 0x0, symName: __ZNKSt3__16vectorIxNS_9allocatorIxEEE17__annotate_deleteB8ue170006Ev, symObjAddr: 0x1AA4, symBinAddr: 0x1000052B4, symSize: 0xB8 }
  - { offsetInCU: 0xB5FC, offset: 0xB5FC, size: 0x8, addend: 0x0, symName: __ZNSt3__116allocator_traitsINS_9allocatorIxEEE10deallocateB8ue170006ERS2_Pxm, symObjAddr: 0x1B5C, symBinAddr: 0x10000536C, symSize: 0x34 }
  - { offsetInCU: 0xB63E, offset: 0xB63E, size: 0x8, addend: 0x0, symName: __ZNSt3__16vectorIxNS_9allocatorIxEEE22__base_destruct_at_endB8ue170006EPx, symObjAddr: 0x1B90, symBinAddr: 0x1000053A0, symSize: 0xA0 }
  - { offsetInCU: 0xB681, offset: 0xB681, size: 0x8, addend: 0x0, symName: __ZNSt3__116allocator_traitsINS_9allocatorIxEEE7destroyB8ue170006IxvEEvRS2_PT_, symObjAddr: 0x1C30, symBinAddr: 0x100005440, symSize: 0x2C }
  - { offsetInCU: 0xB6BE, offset: 0xB6BE, size: 0x8, addend: 0x0, symName: __ZNSt3__19allocatorIxE7destroyB8ue170006EPx, symObjAddr: 0x1C5C, symBinAddr: 0x10000546C, symSize: 0x14 }
  - { offsetInCU: 0xB6F1, offset: 0xB6F1, size: 0x8, addend: 0x0, symName: __ZNSt3__19allocatorIxE10deallocateB8ue170006EPxm, symObjAddr: 0x1C70, symBinAddr: 0x100005480, symSize: 0x70 }
  - { offsetInCU: 0xB732, offset: 0xB732, size: 0x8, addend: 0x0, symName: __ZNSt3__16vectorIxNS_9allocatorIxEEED2B8ue170006Ev, symObjAddr: 0x1D5C, symBinAddr: 0x10000556C, symSize: 0x3C }
  - { offsetInCU: 0xB75B, offset: 0xB75B, size: 0x8, addend: 0x0, symName: __ZNSt3__111char_traitsIcE6lengthB8ue170006EPKc, symObjAddr: 0x1F8C, symBinAddr: 0x10000579C, symSize: 0x48 }
  - { offsetInCU: 0xB79C, offset: 0xB79C, size: 0x8, addend: 0x0, symName: __ZNKSt3__113basic_ostreamIcNS_11char_traitsIcEEE6sentrycvbB8ue170006Ev, symObjAddr: 0x1FD4, symBinAddr: 0x1000057E4, symSize: 0x1C }
  - { offsetInCU: 0xB7C1, offset: 0xB7C1, size: 0x8, addend: 0x0, symName: __ZNSt3__119ostreambuf_iteratorIcNS_11char_traitsIcEEEC1B8ue170006ERNS_13basic_ostreamIcS2_EE, symObjAddr: 0x2238, symBinAddr: 0x100005A48, symSize: 0x34 }
  - { offsetInCU: 0xB7F8, offset: 0xB7F8, size: 0x8, addend: 0x0, symName: __ZNKSt3__18ios_base5flagsB8ue170006Ev, symObjAddr: 0x226C, symBinAddr: 0x100005A7C, symSize: 0x18 }
  - { offsetInCU: 0xB81F, offset: 0xB81F, size: 0x8, addend: 0x0, symName: __ZNKSt3__19basic_iosIcNS_11char_traitsIcEEE4fillB8ue170006Ev, symObjAddr: 0x2284, symBinAddr: 0x100005A94, symSize: 0x64 }
  - { offsetInCU: 0xB845, offset: 0xB845, size: 0x8, addend: 0x0, symName: __ZNKSt3__119ostreambuf_iteratorIcNS_11char_traitsIcEEE6failedB8ue170006Ev, symObjAddr: 0x22E8, symBinAddr: 0x100005AF8, symSize: 0x24 }
  - { offsetInCU: 0xB86A, offset: 0xB86A, size: 0x8, addend: 0x0, symName: __ZNSt3__19basic_iosIcNS_11char_traitsIcEEE8setstateB8ue170006Ej, symObjAddr: 0x230C, symBinAddr: 0x100005B1C, symSize: 0x2C }
  - { offsetInCU: 0xB89E, offset: 0xB89E, size: 0x8, addend: 0x0, symName: __ZNKSt3__18ios_base5widthB8ue170006Ev, symObjAddr: 0x2338, symBinAddr: 0x100005B48, symSize: 0x18 }
  - { offsetInCU: 0xB8C5, offset: 0xB8C5, size: 0x8, addend: 0x0, symName: __ZNSt3__115basic_streambufIcNS_11char_traitsIcEEE5sputnB8ue170006EPKcl, symObjAddr: 0x2350, symBinAddr: 0x100005B60, symSize: 0x3C }
  - { offsetInCU: 0xB906, offset: 0xB906, size: 0x8, addend: 0x0, symName: __ZNSt3__112basic_stringIcNS_11char_traitsIcEENS_9allocatorIcEEEC1B8ue170006Emc, symObjAddr: 0x238C, symBinAddr: 0x100005B9C, symSize: 0x3C }
  - { offsetInCU: 0xB94D, offset: 0xB94D, size: 0x8, addend: 0x0, symName: __ZNKSt3__112basic_stringIcNS_11char_traitsIcEENS_9allocatorIcEEE4dataB8ue170006Ev, symObjAddr: 0x23C8, symBinAddr: 0x100005BD8, symSize: 0x28 }
  - { offsetInCU: 0xB972, offset: 0xB972, size: 0x8, addend: 0x0, symName: __ZNSt3__18ios_base5widthB8ue170006El, symObjAddr: 0x23F0, symBinAddr: 0x100005C00, symSize: 0x2C }
  - { offsetInCU: 0xB9B7, offset: 0xB9B7, size: 0x8, addend: 0x0, symName: __ZNSt3__112basic_stringIcNS_11char_traitsIcEENS_9allocatorIcEEEC2B8ue170006Emc, symObjAddr: 0x241C, symBinAddr: 0x100005C2C, symSize: 0x4C }
  - { offsetInCU: 0xB9FE, offset: 0xB9FE, size: 0x8, addend: 0x0, symName: __ZNSt3__117__compressed_pairINS_12basic_stringIcNS_11char_traitsIcEENS_9allocatorIcEEE5__repES5_EC1B8ue170006INS_18__default_init_tagESA_EEOT_OT0_, symObjAddr: 0x2468, symBinAddr: 0x100005C78, symSize: 0x3C }
  - { offsetInCU: 0xBA55, offset: 0xBA55, size: 0x8, addend: 0x0, symName: __ZNSt3__117__compressed_pairINS_12basic_stringIcNS_11char_traitsIcEENS_9allocatorIcEEE5__repES5_EC2B8ue170006INS_18__default_init_tagESA_EEOT_OT0_, symObjAddr: 0x24A4, symBinAddr: 0x100005CB4, symSize: 0x3C }
  - { offsetInCU: 0xBAAC, offset: 0xBAAC, size: 0x8, addend: 0x0, symName: __ZNSt3__122__compressed_pair_elemINS_12basic_stringIcNS_11char_traitsIcEENS_9allocatorIcEEE5__repELi0ELb0EEC2B8ue170006ENS_18__default_init_tagE, symObjAddr: 0x24E0, symBinAddr: 0x100005CF0, symSize: 0x14 }
  - { offsetInCU: 0xBADF, offset: 0xBADF, size: 0x8, addend: 0x0, symName: __ZNSt3__122__compressed_pair_elemINS_9allocatorIcEELi1ELb1EEC2B8ue170006ENS_18__default_init_tagE, symObjAddr: 0x24F4, symBinAddr: 0x100005D04, symSize: 0x2C }
  - { offsetInCU: 0xBB12, offset: 0xBB12, size: 0x8, addend: 0x0, symName: __ZNSt3__19allocatorIcEC2B8ue170006Ev, symObjAddr: 0x2520, symBinAddr: 0x100005D30, symSize: 0x2C }
  - { offsetInCU: 0xBB3B, offset: 0xBB3B, size: 0x8, addend: 0x0, symName: __ZNSt3__116__non_trivial_ifILb1ENS_9allocatorIcEEEC2B8ue170006Ev, symObjAddr: 0x254C, symBinAddr: 0x100005D5C, symSize: 0x14 }
  - { offsetInCU: 0xBB64, offset: 0xBB64, size: 0x8, addend: 0x0, symName: __ZNKSt3__112basic_stringIcNS_11char_traitsIcEENS_9allocatorIcEEE13__get_pointerB8ue170006Ev, symObjAddr: 0x2574, symBinAddr: 0x100005D84, symSize: 0x54 }
  - { offsetInCU: 0xBB89, offset: 0xBB89, size: 0x8, addend: 0x0, symName: __ZNKSt3__112basic_stringIcNS_11char_traitsIcEENS_9allocatorIcEEE9__is_longB8ue170006Ev, symObjAddr: 0x25C8, symBinAddr: 0x100005DD8, symSize: 0x74 }
  - { offsetInCU: 0xBBAE, offset: 0xBBAE, size: 0x8, addend: 0x0, symName: __ZNKSt3__112basic_stringIcNS_11char_traitsIcEENS_9allocatorIcEEE18__get_long_pointerB8ue170006Ev, symObjAddr: 0x263C, symBinAddr: 0x100005E4C, symSize: 0x28 }
  - { offsetInCU: 0xBBD3, offset: 0xBBD3, size: 0x8, addend: 0x0, symName: __ZNKSt3__112basic_stringIcNS_11char_traitsIcEENS_9allocatorIcEEE19__get_short_pointerB8ue170006Ev, symObjAddr: 0x2664, symBinAddr: 0x100005E74, symSize: 0x28 }
  - { offsetInCU: 0xBBF8, offset: 0xBBF8, size: 0x8, addend: 0x0, symName: __ZNKSt3__117__compressed_pairINS_12basic_stringIcNS_11char_traitsIcEENS_9allocatorIcEEE5__repES5_E5firstB8ue170006Ev, symObjAddr: 0x268C, symBinAddr: 0x100005E9C, symSize: 0x24 }
  - { offsetInCU: 0xBC1D, offset: 0xBC1D, size: 0x8, addend: 0x0, symName: __ZNKSt3__122__compressed_pair_elemINS_12basic_stringIcNS_11char_traitsIcEENS_9allocatorIcEEE5__repELi0ELb0EE5__getB8ue170006Ev, symObjAddr: 0x26B0, symBinAddr: 0x100005EC0, symSize: 0x14 }
  - { offsetInCU: 0xBC42, offset: 0xBC42, size: 0x8, addend: 0x0, symName: __ZNSt3__114pointer_traitsIPKcE10pointer_toB8ue170006ERS1_, symObjAddr: 0x26C4, symBinAddr: 0x100005ED4, symSize: 0x14 }
  - { offsetInCU: 0xBC65, offset: 0xBC65, size: 0x8, addend: 0x0, symName: __ZNSt3__119ostreambuf_iteratorIcNS_11char_traitsIcEEEC2B8ue170006ERNS_13basic_ostreamIcS2_EE, symObjAddr: 0x26D8, symBinAddr: 0x100005EE8, symSize: 0x68 }
  - { offsetInCU: 0xBC9C, offset: 0xBC9C, size: 0x8, addend: 0x0, symName: __ZNKSt3__19basic_iosIcNS_11char_traitsIcEEE5rdbufB8ue170006Ev, symObjAddr: 0x2740, symBinAddr: 0x100005F50, symSize: 0x24 }
  - { offsetInCU: 0xBCC2, offset: 0xBCC2, size: 0x8, addend: 0x0, symName: __ZNKSt3__18ios_base5rdbufB8ue170006Ev, symObjAddr: 0x2764, symBinAddr: 0x100005F74, symSize: 0x18 }
  - { offsetInCU: 0xBCE7, offset: 0xBCE7, size: 0x8, addend: 0x0, symName: __ZNSt3__111char_traitsIcE11eq_int_typeB8ue170006Eii, symObjAddr: 0x277C, symBinAddr: 0x100005F8C, symSize: 0x28 }
  - { offsetInCU: 0xBD1A, offset: 0xBD1A, size: 0x8, addend: 0x0, symName: __ZNSt3__111char_traitsIcE3eofB8ue170006Ev, symObjAddr: 0x27A4, symBinAddr: 0x100005FB4, symSize: 0x8 }
  - { offsetInCU: 0xBD2E, offset: 0xBD2E, size: 0x8, addend: 0x0, symName: __ZNKSt3__19basic_iosIcNS_11char_traitsIcEEE5widenB8ue170006Ec, symObjAddr: 0x27AC, symBinAddr: 0x100005FBC, symSize: 0x8C }
  - { offsetInCU: 0xBD9A, offset: 0xBD9A, size: 0x8, addend: 0x0, symName: __ZNKSt3__15ctypeIcE5widenB8ue170006Ec, symObjAddr: 0x2864, symBinAddr: 0x100006074, symSize: 0x38 }
  - { offsetInCU: 0xBDCE, offset: 0xBDCE, size: 0x8, addend: 0x0, symName: __ZNSt3__18ios_base8setstateB8ue170006Ej, symObjAddr: 0x289C, symBinAddr: 0x1000060AC, symSize: 0x34 }
  - { offsetInCU: 0xBE03, offset: 0xBE03, size: 0x8, addend: 0x0, symName: __ZNKSt3__16__lessIvvEclB8ue170006IxxEEbRKT_RKT0_, symObjAddr: 0x2948, symBinAddr: 0x100006158, symSize: 0x34 }
  - { offsetInCU: 0xBE56, offset: 0xBE56, size: 0x8, addend: 0x0, symName: __ZNSt3__16vectorIxNS_9allocatorIxEEEC2B8ue170006Ev, symObjAddr: 0x29D0, symBinAddr: 0x1000061E0, symSize: 0x44 }
  - { offsetInCU: 0xBE84, offset: 0xBE84, size: 0x8, addend: 0x0, symName: __ZNSt3__16vectorIxNS_9allocatorIxEEE22__construct_one_at_endB8ue170006IJxEEEvDpOT_, symObjAddr: 0x2A14, symBinAddr: 0x100006224, symSize: 0x98 }
  - { offsetInCU: 0xBED2, offset: 0xBED2, size: 0x8, addend: 0x0, symName: __ZNSt3__16vectorIxNS_9allocatorIxEEE21__push_back_slow_pathIxEEvOT_, symObjAddr: 0x2AAC, symBinAddr: 0x1000062BC, symSize: 0xE0 }
  - { offsetInCU: 0xBF2E, offset: 0xBF2E, size: 0x8, addend: 0x0, symName: __ZNSt3__116allocator_traitsINS_9allocatorIxEEE9constructB8ue170006IxJxEvEEvRS2_PT_DpOT0_, symObjAddr: 0x2B8C, symBinAddr: 0x10000639C, symSize: 0x34 }
  - { offsetInCU: 0xBF85, offset: 0xBF85, size: 0x8, addend: 0x0, symName: __ZNSt3__19allocatorIxE9constructB8ue170006IxJxEEEvPT_DpOT0_, symObjAddr: 0x2BC0, symBinAddr: 0x1000063D0, symSize: 0x28 }
  - { offsetInCU: 0xBFDA, offset: 0xBFDA, size: 0x8, addend: 0x0, symName: __ZNKSt3__16vectorIxNS_9allocatorIxEEE11__recommendB8ue170006Em, symObjAddr: 0x2BE8, symBinAddr: 0x1000063F8, symSize: 0xB4 }
  - { offsetInCU: 0xC02D, offset: 0xC02D, size: 0x8, addend: 0x0, symName: __ZNSt3__114__split_bufferIxRNS_9allocatorIxEEEC1EmmS3_, symObjAddr: 0x2C9C, symBinAddr: 0x1000064AC, symSize: 0x44 }
  - { offsetInCU: 0xC082, offset: 0xC082, size: 0x8, addend: 0x0, symName: __ZNSt3__114__split_bufferIxRNS_9allocatorIxEEED1Ev, symObjAddr: 0x2DF0, symBinAddr: 0x100006600, symSize: 0x2C }
  - { offsetInCU: 0xC0AD, offset: 0xC0AD, size: 0x8, addend: 0x0, symName: __ZNSt3__114__split_bufferIxRNS_9allocatorIxEEEC2EmmS3_, symObjAddr: 0x2E9C, symBinAddr: 0x1000066AC, symSize: 0xD4 }
  - { offsetInCU: 0xC120, offset: 0xC120, size: 0x8, addend: 0x0, symName: __ZNSt3__117__compressed_pairIPxRNS_9allocatorIxEEEC1B8ue170006IDnS4_EEOT_OT0_, symObjAddr: 0x2F70, symBinAddr: 0x100006780, symSize: 0x3C }
  - { offsetInCU: 0xC177, offset: 0xC177, size: 0x8, addend: 0x0, symName: __ZNSt3__114__split_bufferIxRNS_9allocatorIxEEE7__allocB8ue170006Ev, symObjAddr: 0x2FAC, symBinAddr: 0x1000067BC, symSize: 0x28 }
  - { offsetInCU: 0xC19C, offset: 0xC19C, size: 0x8, addend: 0x0, symName: __ZNSt3__114__split_bufferIxRNS_9allocatorIxEEE9__end_capB8ue170006Ev, symObjAddr: 0x2FD4, symBinAddr: 0x1000067E4, symSize: 0x28 }
  - { offsetInCU: 0xC1C1, offset: 0xC1C1, size: 0x8, addend: 0x0, symName: __ZNSt3__117__compressed_pairIPxRNS_9allocatorIxEEEC2B8ue170006IDnS4_EEOT_OT0_, symObjAddr: 0x2FFC, symBinAddr: 0x10000680C, symSize: 0x48 }
  - { offsetInCU: 0xC218, offset: 0xC218, size: 0x8, addend: 0x0, symName: __ZNSt3__122__compressed_pair_elemIRNS_9allocatorIxEELi1ELb0EEC2B8ue170006IS3_vEEOT_, symObjAddr: 0x3044, symBinAddr: 0x100006854, symSize: 0x20 }
  - { offsetInCU: 0xC259, offset: 0xC259, size: 0x8, addend: 0x0, symName: __ZNSt3__117__compressed_pairIPxRNS_9allocatorIxEEE6secondB8ue170006Ev, symObjAddr: 0x3064, symBinAddr: 0x100006874, symSize: 0x28 }
  - { offsetInCU: 0xC27E, offset: 0xC27E, size: 0x8, addend: 0x0, symName: __ZNSt3__122__compressed_pair_elemIRNS_9allocatorIxEELi1ELb0EE5__getB8ue170006Ev, symObjAddr: 0x308C, symBinAddr: 0x10000689C, symSize: 0x18 }
  - { offsetInCU: 0xC2A3, offset: 0xC2A3, size: 0x8, addend: 0x0, symName: __ZNSt3__117__compressed_pairIPxRNS_9allocatorIxEEE5firstB8ue170006Ev, symObjAddr: 0x30A4, symBinAddr: 0x1000068B4, symSize: 0x24 }
  - { offsetInCU: 0xC2C8, offset: 0xC2C8, size: 0x8, addend: 0x0, symName: __ZNSt3__116reverse_iteratorIPxEC1B8ue170006ES1_, symObjAddr: 0x31B0, symBinAddr: 0x1000069C0, symSize: 0x34 }
  - { offsetInCU: 0xC2FF, offset: 0xC2FF, size: 0x8, addend: 0x0, symName: __ZNKSt3__116reverse_iteratorIPxE4baseB8ue170006Ev, symObjAddr: 0x31E4, symBinAddr: 0x1000069F4, symSize: 0x18 }
  - { offsetInCU: 0xC324, offset: 0xC324, size: 0x8, addend: 0x0, symName: __ZNKSt3__116reverse_iteratorIPxEdeB8ue170006Ev, symObjAddr: 0x32D0, symBinAddr: 0x100006AE0, symSize: 0x28 }
  - { offsetInCU: 0xC357, offset: 0xC357, size: 0x8, addend: 0x0, symName: __ZNSt3__116reverse_iteratorIPxEppB8ue170006Ev, symObjAddr: 0x32F8, symBinAddr: 0x100006B08, symSize: 0x20 }
  - { offsetInCU: 0xC381, offset: 0xC381, size: 0x8, addend: 0x0, symName: __ZNSt3__119__to_address_helperINS_16reverse_iteratorIPxEEvE6__callB8ue170006ERKS3_, symObjAddr: 0x3390, symBinAddr: 0x100006BA0, symSize: 0x4C }
  - { offsetInCU: 0xC3A4, offset: 0xC3A4, size: 0x8, addend: 0x0, symName: __ZNKSt3__116reverse_iteratorIPxEptB8ue170006Ev, symObjAddr: 0x33DC, symBinAddr: 0x100006BEC, symSize: 0x24 }
  - { offsetInCU: 0xC3EC, offset: 0xC3EC, size: 0x8, addend: 0x0, symName: __ZNKSt3__111__move_loopINS_17_ClassicAlgPolicyEEclB8ue170006INS_16reverse_iteratorIPxEES6_S6_EENS_4pairIT_T1_EES8_T0_S9_, symObjAddr: 0x3678, symBinAddr: 0x100006E88, symSize: 0xA0 }
  - { offsetInCU: 0xC456, offset: 0xC456, size: 0x8, addend: 0x0, symName: __ZNSt3__18_IterOpsINS_17_ClassicAlgPolicyEE11__iter_moveB8ue170006IRNS_16reverse_iteratorIPxEEEENS_9enable_ifIXsr12is_referenceIDTdeclsr3stdE7declvalIRT_EEEEE5valueEDTclsr3stdE4movedeclsr3stdE7declvalISA_EEEEE4typeEOS9_, symObjAddr: 0x3878, symBinAddr: 0x100007088, symSize: 0x28 }
  - { offsetInCU: 0xC482, offset: 0xC482, size: 0x8, addend: 0x0, symName: __ZNSt3__18_IterOpsINS_17_ClassicAlgPolicyEE25__validate_iter_referenceB8ue170006IRNS_16reverse_iteratorIPxEEEEvv, symObjAddr: 0x38A0, symBinAddr: 0x1000070B0, symSize: 0x4 }
  - { offsetInCU: 0xC4A0, offset: 0xC4A0, size: 0x8, addend: 0x0, symName: __ZNSt3__118__unwrap_iter_implINS_16reverse_iteratorIPxEELb0EE8__unwrapB8ue170006ES3_, symObjAddr: 0x38A4, symBinAddr: 0x1000070B4, symSize: 0x24 }
  - { offsetInCU: 0xC4C3, offset: 0xC4C3, size: 0x8, addend: 0x0, symName: __ZNSt3__14pairINS_16reverse_iteratorIPxEES3_EC1B8ue170006ERKS3_S6_, symObjAddr: 0x38C8, symBinAddr: 0x1000070D8, symSize: 0x3C }
  - { offsetInCU: 0xC508, offset: 0xC508, size: 0x8, addend: 0x0, symName: __ZNSt3__14pairINS_16reverse_iteratorIPxEES3_EC2B8ue170006ERKS3_S6_, symObjAddr: 0x3904, symBinAddr: 0x100007114, symSize: 0x34 }
  - { offsetInCU: 0xC54D, offset: 0xC54D, size: 0x8, addend: 0x0, symName: __ZNSt3__118__unwrap_iter_implINS_16reverse_iteratorIPxEELb0EE8__rewrapB8ue170006ES3_S3_, symObjAddr: 0x3938, symBinAddr: 0x100007148, symSize: 0x2C }
  - { offsetInCU: 0xC57A, offset: 0xC57A, size: 0x8, addend: 0x0, symName: __ZNSt3__116reverse_iteratorIPxEC2B8ue170006ES1_, symObjAddr: 0x3964, symBinAddr: 0x100007174, symSize: 0x28 }
  - { offsetInCU: 0xC5B1, offset: 0xC5B1, size: 0x8, addend: 0x0, symName: __ZNSt3__114__split_bufferIxRNS_9allocatorIxEEED2Ev, symObjAddr: 0x398C, symBinAddr: 0x10000719C, symSize: 0x80 }
  - { offsetInCU: 0xC5DC, offset: 0xC5DC, size: 0x8, addend: 0x0, symName: __ZNSt3__114__split_bufferIxRNS_9allocatorIxEEE5clearB8ue170006Ev, symObjAddr: 0x3A0C, symBinAddr: 0x10000721C, symSize: 0x28 }
  - { offsetInCU: 0xC601, offset: 0xC601, size: 0x8, addend: 0x0, symName: __ZNKSt3__114__split_bufferIxRNS_9allocatorIxEEE8capacityB8ue170006Ev, symObjAddr: 0x3A34, symBinAddr: 0x100007244, symSize: 0x40 }
  - { offsetInCU: 0xC626, offset: 0xC626, size: 0x8, addend: 0x0, symName: __ZNSt3__114__split_bufferIxRNS_9allocatorIxEEE17__destruct_at_endB8ue170006EPx, symObjAddr: 0x3A74, symBinAddr: 0x100007284, symSize: 0x2C }
  - { offsetInCU: 0xC659, offset: 0xC659, size: 0x8, addend: 0x0, symName: __ZNSt3__114__split_bufferIxRNS_9allocatorIxEEE17__destruct_at_endB8ue170006EPxNS_17integral_constantIbLb0EEE, symObjAddr: 0x3AA0, symBinAddr: 0x1000072B0, symSize: 0x94 }
  - { offsetInCU: 0xC697, offset: 0xC697, size: 0x8, addend: 0x0, symName: __ZNKSt3__114__split_bufferIxRNS_9allocatorIxEEE9__end_capB8ue170006Ev, symObjAddr: 0x3B34, symBinAddr: 0x100007344, symSize: 0x28 }
  - { offsetInCU: 0xC6BC, offset: 0xC6BC, size: 0x8, addend: 0x0, symName: __ZNKSt3__117__compressed_pairIPxRNS_9allocatorIxEEE5firstB8ue170006Ev, symObjAddr: 0x3B5C, symBinAddr: 0x10000736C, symSize: 0x24 }
  - { offsetInCU: 0xC6E1, offset: 0xC6E1, size: 0x8, addend: 0x0, symName: __ZNSt3__16vectorIxNS_9allocatorIxEEE22__construct_one_at_endB8ue170006IJRKxEEEvDpOT_, symObjAddr: 0x3B80, symBinAddr: 0x100007390, symSize: 0x98 }
  - { offsetInCU: 0xC72F, offset: 0xC72F, size: 0x8, addend: 0x0, symName: __ZNSt3__16vectorIxNS_9allocatorIxEEE21__push_back_slow_pathIRKxEEvOT_, symObjAddr: 0x3C18, symBinAddr: 0x100007428, symSize: 0xE0 }
  - { offsetInCU: 0xC78B, offset: 0xC78B, size: 0x8, addend: 0x0, symName: __ZNSt3__116allocator_traitsINS_9allocatorIxEEE9constructB8ue170006IxJRKxEvEEvRS2_PT_DpOT0_, symObjAddr: 0x3CF8, symBinAddr: 0x100007508, symSize: 0x34 }
  - { offsetInCU: 0xC7E2, offset: 0xC7E2, size: 0x8, addend: 0x0, symName: __ZNSt3__19allocatorIxE9constructB8ue170006IxJRKxEEEvPT_DpOT0_, symObjAddr: 0x3D2C, symBinAddr: 0x10000753C, symSize: 0x28 }
  - { offsetInCU: 0xC837, offset: 0xC837, size: 0x8, addend: 0x0, symName: __ZNSt3__16vectorIxNS_9allocatorIxEEE11__make_iterB8ue170006EPx, symObjAddr: 0x3D54, symBinAddr: 0x100007564, symSize: 0x30 }
  - { offsetInCU: 0xC86B, offset: 0xC86B, size: 0x8, addend: 0x0, symName: __ZNSt3__111__wrap_iterIPxEC1B8ue170006ES1_, symObjAddr: 0x3D84, symBinAddr: 0x100007594, symSize: 0x34 }
  - { offsetInCU: 0xC8A2, offset: 0xC8A2, size: 0x8, addend: 0x0, symName: __ZNSt3__111__wrap_iterIPxEC2B8ue170006ES1_, symObjAddr: 0x3DB8, symBinAddr: 0x1000075C8, symSize: 0x20 }
  - { offsetInCU: 0xC8D9, offset: 0xC8D9, size: 0x8, addend: 0x0, symName: __ZNSt3__111__wrap_iterIPxEmmB8ue170006Ev, symObjAddr: 0x3F0C, symBinAddr: 0x10000771C, symSize: 0x20 }
  - { offsetInCU: 0xC8FE, offset: 0xC8FE, size: 0x8, addend: 0x0, symName: __ZNSt3__18_IterOpsINS_17_ClassicAlgPolicyEE9iter_swapB8ue170006IRNS_11__wrap_iterIPxEES7_EEvOT_OT0_, symObjAddr: 0x3F2C, symBinAddr: 0x10000773C, symSize: 0x44 }
  - { offsetInCU: 0xC941, offset: 0xC941, size: 0x8, addend: 0x0, symName: __ZNSt3__111__wrap_iterIPxEppB8ue170006Ev, symObjAddr: 0x3F70, symBinAddr: 0x100007780, symSize: 0x20 }
  - { offsetInCU: 0xC966, offset: 0xC966, size: 0x8, addend: 0x0, symName: __ZNKSt3__111__wrap_iterIPxE4baseB8ue170006Ev, symObjAddr: 0x3FD8, symBinAddr: 0x1000077E8, symSize: 0x18 }
  - { offsetInCU: 0xC98B, offset: 0xC98B, size: 0x8, addend: 0x0, symName: __ZNKSt3__111__wrap_iterIPxEdeB8ue170006Ev, symObjAddr: 0x407C, symBinAddr: 0x10000788C, symSize: 0x18 }
...
